target datalayout = "e-m:e-p270:32:32-p271:32:32-p272:64:64-i64:64-i128:128-f80:128-n8:16:32:64-S128"
target triple = "x86_64-pc-linux-gnu"

%struct.ZSTD_compressionParameters = type { i32, i32, i32, i32, i32, i32, i32 }
%struct.ldmParams_t = type { i32, i32, i32, i32, i32, i32 }

; Function Attrs: nounwind uwtable
define internal i32 @ZSTD_rowMatchFinderSupported(i32 noundef %0) #0 {
  %2 = alloca i32, align 4
  store i32 %0, ptr %2, align 4
  %3 = load i32, ptr %2, align 4
  %4 = icmp uge i32 %3, 3
  br i1 %4, label %5, label %8

5:                                                ; preds = %1
  %6 = load i32, ptr %2, align 4
  %7 = icmp ule i32 %6, 5
  br label %8

8:                                                ; preds = %5, %1
  %9 = phi i1 [ false, %1 ], [ %7, %5 ]
  %10 = zext i1 %9 to i32
  ret i32 %10
}

; Function Attrs: nounwind uwtable
define internal i64 @ZSTD_cwksp_slack_space_required() #0 {
  %1 = alloca i64, align 8
  store i64 128, ptr %1, align 8
  ret i64 128
}

; Function Attrs: nounwind uwtable
define internal i32 @ZSTD_rowMatchFinderUsed(i32 noundef %0, i32 noundef %1) #0 {
  %3 = alloca i32, align 4
  %4 = alloca i32, align 4
  store i32 %0, ptr %3, align 4
  store i32 %1, ptr %4, align 4
  %5 = load i32, ptr %3, align 4
  %6 = call i32 @ZSTD_rowMatchFinderSupported(i32 noundef %5)
  %7 = icmp ne i32 %6, 0
  br i1 %7, label %8, label %11

8:                                                ; preds = %2
  %9 = load i32, ptr %4, align 4
  %10 = icmp eq i32 %9, 1
  br label %11

11:                                               ; preds = %8, %2
  %12 = phi i1 [ false, %2 ], [ %10, %8 ]
  %13 = zext i1 %12 to i32
  ret i32 %13
}

; Function Attrs: nounwind uwtable
define internal i32 @ZSTD_allocateChainTable(i32 noundef %0, i32 noundef %1, i32 noundef %2) #0 {
  %4 = alloca i32, align 4
  %5 = alloca i32, align 4
  %6 = alloca i32, align 4
  store i32 %0, ptr %4, align 4
  store i32 %1, ptr %5, align 4
  store i32 %2, ptr %6, align 4
  %7 = load i32, ptr %6, align 4
  %8 = icmp ne i32 %7, 0
  br i1 %8, label %20, label %9

9:                                                ; preds = %3
  %10 = load i32, ptr %4, align 4
  %11 = icmp ne i32 %10, 1
  br i1 %11, label %12, label %18

12:                                               ; preds = %9
  %13 = load i32, ptr %4, align 4
  %14 = load i32, ptr %5, align 4
  %15 = call i32 @ZSTD_rowMatchFinderUsed(i32 noundef %13, i32 noundef %14)
  %16 = icmp ne i32 %15, 0
  %17 = xor i1 %16, true
  br label %18

18:                                               ; preds = %12, %9
  %19 = phi i1 [ false, %9 ], [ %17, %12 ]
  br label %20

20:                                               ; preds = %18, %3
  %21 = phi i1 [ true, %3 ], [ %19, %18 ]
  %22 = zext i1 %21 to i32
  ret i32 %22
}

; Function Attrs: nounwind uwtable
define internal i64 @ZSTD_cwksp_align(i64 noundef %0, i64 noundef %1) #0 {
  %3 = alloca i64, align 8
  %4 = alloca i64, align 8
  %5 = alloca i64, align 8
  store i64 %0, ptr %3, align 8
  store i64 %1, ptr %4, align 8
  %6 = load i64, ptr %4, align 8
  %7 = sub i64 %6, 1
  store i64 %7, ptr %5, align 8
  %8 = load i64, ptr %3, align 8
  %9 = load i64, ptr %5, align 8
  %10 = add i64 %8, %9
  %11 = load i64, ptr %5, align 8
  %12 = xor i64 %11, -1
  %13 = and i64 %10, %12
  ret i64 %13
}

; Function Attrs: nounwind uwtable
define dso_local i64 @ZSTD_sequenceBound(i64 noundef %0) #0 {
  %2 = alloca i64, align 8
  store i64 %0, ptr %2, align 8
  %3 = load i64, ptr %2, align 8
  %4 = udiv i64 %3, 3
  %5 = add i64 %4, 1
  ret i64 %5
}

; Function Attrs: nounwind uwtable
define internal i64 @ZSTD_sizeof_matchState(ptr noundef %0, i32 noundef %1, i32 noundef %2, i32 noundef %3) #0 {
  %5 = alloca ptr, align 8
  %6 = alloca i32, align 4
  %7 = alloca i32, align 4
  %8 = alloca i32, align 4
  %9 = alloca i64, align 8
  %10 = alloca i64, align 8
  %11 = alloca i32, align 4
  %12 = alloca i64, align 8
  %13 = alloca i64, align 8
  %14 = alloca i64, align 8
  %15 = alloca i64, align 8
  %16 = alloca i64, align 8
  %17 = alloca i64, align 8
  store ptr %0, ptr %5, align 8
  store i32 %1, ptr %6, align 4
  store i32 %2, ptr %7, align 4
  store i32 %3, ptr %8, align 4
  %18 = load ptr, ptr %5, align 8
  %19 = getelementptr inbounds %struct.ZSTD_compressionParameters, ptr %18, i32 0, i32 6
  %20 = load i32, ptr %19, align 4
  %21 = load i32, ptr %6, align 4
  %22 = load i32, ptr %7, align 4
  %23 = icmp ne i32 %22, 0
  br i1 %23, label %24, label %28

24:                                               ; preds = %4
  %25 = load i32, ptr %8, align 4
  %26 = icmp ne i32 %25, 0
  %27 = xor i1 %26, true
  br label %28

28:                                               ; preds = %24, %4
  %29 = phi i1 [ false, %4 ], [ %27, %24 ]
  %30 = zext i1 %29 to i32
  %31 = call i32 @ZSTD_allocateChainTable(i32 noundef %20, i32 noundef %21, i32 noundef %30)
  %32 = icmp ne i32 %31, 0
  br i1 %32, label %33, label %39

33:                                               ; preds = %28
  %34 = load ptr, ptr %5, align 8
  %35 = getelementptr inbounds %struct.ZSTD_compressionParameters, ptr %34, i32 0, i32 1
  %36 = load i32, ptr %35, align 4
  %37 = zext i32 %36 to i64
  %38 = shl i64 1, %37
  br label %40

39:                                               ; preds = %28
  br label %40

40:                                               ; preds = %39, %33
  %41 = phi i64 [ %38, %33 ], [ 0, %39 ]
  store i64 %41, ptr %9, align 8
  %42 = load ptr, ptr %5, align 8
  %43 = getelementptr inbounds %struct.ZSTD_compressionParameters, ptr %42, i32 0, i32 2
  %44 = load i32, ptr %43, align 4
  %45 = zext i32 %44 to i64
  %46 = shl i64 1, %45
  store i64 %46, ptr %10, align 8
  %47 = load i32, ptr %8, align 4
  %48 = icmp ne i32 %47, 0
  br i1 %48, label %49, label %66

49:                                               ; preds = %40
  %50 = load ptr, ptr %5, align 8
  %51 = getelementptr inbounds %struct.ZSTD_compressionParameters, ptr %50, i32 0, i32 4
  %52 = load i32, ptr %51, align 4
  %53 = icmp eq i32 %52, 3
  br i1 %53, label %54, label %66

54:                                               ; preds = %49
  %55 = load ptr, ptr %5, align 8
  %56 = getelementptr inbounds %struct.ZSTD_compressionParameters, ptr %55, i32 0, i32 0
  %57 = load i32, ptr %56, align 4
  %58 = icmp ult i32 17, %57
  br i1 %58, label %59, label %60

59:                                               ; preds = %54
  br label %64

60:                                               ; preds = %54
  %61 = load ptr, ptr %5, align 8
  %62 = getelementptr inbounds %struct.ZSTD_compressionParameters, ptr %61, i32 0, i32 0
  %63 = load i32, ptr %62, align 4
  br label %64

64:                                               ; preds = %60, %59
  %65 = phi i32 [ 17, %59 ], [ %63, %60 ]
  br label %67

66:                                               ; preds = %49, %40
  br label %67

67:                                               ; preds = %66, %64
  %68 = phi i32 [ %65, %64 ], [ 0, %66 ]
  store i32 %68, ptr %11, align 4
  %69 = load i32, ptr %11, align 4
  %70 = icmp ne i32 %69, 0
  br i1 %70, label %71, label %75

71:                                               ; preds = %67
  %72 = load i32, ptr %11, align 4
  %73 = zext i32 %72 to i64
  %74 = shl i64 1, %73
  br label %76

75:                                               ; preds = %67
  br label %76

76:                                               ; preds = %75, %71
  %77 = phi i64 [ %74, %71 ], [ 0, %75 ]
  store i64 %77, ptr %12, align 8
  %78 = load i64, ptr %9, align 8
  %79 = mul i64 %78, 4
  %80 = load i64, ptr %10, align 8
  %81 = mul i64 %80, 4
  %82 = add i64 %79, %81
  %83 = load i64, ptr %12, align 8
  %84 = mul i64 %83, 4
  %85 = add i64 %82, %84
  store i64 %85, ptr %13, align 8
  %86 = call i64 @ZSTD_cwksp_aligned_alloc_size(i64 noundef 212)
  %87 = call i64 @ZSTD_cwksp_aligned_alloc_size(i64 noundef 144)
  %88 = add i64 %86, %87
  %89 = call i64 @ZSTD_cwksp_aligned_alloc_size(i64 noundef 128)
  %90 = add i64 %88, %89
  %91 = call i64 @ZSTD_cwksp_aligned_alloc_size(i64 noundef 1024)
  %92 = add i64 %90, %91
  %93 = call i64 @ZSTD_cwksp_aligned_alloc_size(i64 noundef 32776)
  %94 = add i64 %92, %93
  %95 = call i64 @ZSTD_cwksp_aligned_alloc_size(i64 noundef 114716)
  %96 = add i64 %94, %95
  store i64 %96, ptr %14, align 8
  %97 = load ptr, ptr %5, align 8
  %98 = getelementptr inbounds %struct.ZSTD_compressionParameters, ptr %97, i32 0, i32 6
  %99 = load i32, ptr %98, align 4
  %100 = load i32, ptr %6, align 4
  %101 = call i32 @ZSTD_rowMatchFinderUsed(i32 noundef %99, i32 noundef %100)
  %102 = icmp ne i32 %101, 0
  br i1 %102, label %103, label %106

103:                                              ; preds = %76
  %104 = load i64, ptr %10, align 8
  %105 = call i64 @ZSTD_cwksp_aligned_alloc_size(i64 noundef %104)
  br label %107

106:                                              ; preds = %76
  br label %107

107:                                              ; preds = %106, %103
  %108 = phi i64 [ %105, %103 ], [ 0, %106 ]
  store i64 %108, ptr %15, align 8
  %109 = load i32, ptr %8, align 4
  %110 = icmp ne i32 %109, 0
  br i1 %110, label %111, label %118

111:                                              ; preds = %107
  %112 = load ptr, ptr %5, align 8
  %113 = getelementptr inbounds %struct.ZSTD_compressionParameters, ptr %112, i32 0, i32 6
  %114 = load i32, ptr %113, align 4
  %115 = icmp uge i32 %114, 7
  br i1 %115, label %116, label %118

116:                                              ; preds = %111
  %117 = load i64, ptr %14, align 8
  br label %119

118:                                              ; preds = %111, %107
  br label %119

119:                                              ; preds = %118, %116
  %120 = phi i64 [ %117, %116 ], [ 0, %118 ]
  store i64 %120, ptr %16, align 8
  %121 = call i64 @ZSTD_cwksp_slack_space_required()
  store i64 %121, ptr %17, align 8
  %122 = load i64, ptr %13, align 8
  %123 = load i64, ptr %16, align 8
  %124 = add i64 %122, %123
  %125 = load i64, ptr %17, align 8
  %126 = add i64 %124, %125
  %127 = load i64, ptr %15, align 8
  %128 = add i64 %126, %127
  ret i64 %128
}

; Function Attrs: nounwind uwtable
define internal i64 @ZSTD_cwksp_aligned_alloc_size(i64 noundef %0) #0 {
  %2 = alloca i64, align 8
  store i64 %0, ptr %2, align 8
  %3 = load i64, ptr %2, align 8
  %4 = call i64 @ZSTD_cwksp_align(i64 noundef %3, i64 noundef 64)
  %5 = call i64 @ZSTD_cwksp_alloc_size(i64 noundef %4)
  ret i64 %5
}

; Function Attrs: nounwind uwtable
define internal i64 @ZSTD_cwksp_alloc_size(i64 noundef %0) #0 {
  %2 = alloca i64, align 8
  %3 = alloca i64, align 8
  store i64 %0, ptr %3, align 8
  %4 = load i64, ptr %3, align 8
  %5 = icmp eq i64 %4, 0
  br i1 %5, label %6, label %7

6:                                                ; preds = %1
  store i64 0, ptr %2, align 8
  br label %9

7:                                                ; preds = %1
  %8 = load i64, ptr %3, align 8
  store i64 %8, ptr %2, align 8
  br label %9

9:                                                ; preds = %7, %6
  %10 = load i64, ptr %2, align 8
  ret i64 %10
}

; Function Attrs: nounwind uwtable
define internal i64 @ZSTD_maxNbSeq(i64 noundef %0, i32 noundef %1, i32 noundef %2) #0 {
  %4 = alloca i64, align 8
  %5 = alloca i32, align 4
  %6 = alloca i32, align 4
  %7 = alloca i32, align 4
  store i64 %0, ptr %4, align 8
  store i32 %1, ptr %5, align 4
  store i32 %2, ptr %6, align 4
  %8 = load i32, ptr %5, align 4
  %9 = icmp eq i32 %8, 3
  br i1 %9, label %13, label %10

10:                                               ; preds = %3
  %11 = load i32, ptr %6, align 4
  %12 = icmp ne i32 %11, 0
  br label %13

13:                                               ; preds = %10, %3
  %14 = phi i1 [ true, %3 ], [ %12, %10 ]
  %15 = select i1 %14, i32 3, i32 4
  store i32 %15, ptr %7, align 4
  %16 = load i64, ptr %4, align 8
  %17 = load i32, ptr %7, align 4
  %18 = zext i32 %17 to i64
  %19 = udiv i64 %16, %18
  ret i64 %19
}

; Function Attrs: nounwind uwtable
define internal i64 @ZSTD_resolveMaxBlockSize(i64 noundef %0) #0 {
  %2 = alloca i64, align 8
  %3 = alloca i64, align 8
  store i64 %0, ptr %3, align 8
  %4 = load i64, ptr %3, align 8
  %5 = icmp eq i64 %4, 0
  br i1 %5, label %6, label %7

6:                                                ; preds = %1
  store i64 131072, ptr %2, align 8
  br label %9

7:                                                ; preds = %1
  %8 = load i64, ptr %3, align 8
  store i64 %8, ptr %2, align 8
  br label %9

9:                                                ; preds = %7, %6
  %10 = load i64, ptr %2, align 8
  ret i64 %10
}

; Function Attrs: nounwind uwtable
define internal i64 @ZSTD_estimateCCtxSize_usingCCtxParams_internal(ptr noundef %0, ptr noundef %1, i32 noundef %2, i32 noundef %3, i64 noundef %4, i64 noundef %5, i64 noundef %6, i32 noundef %7, i64 noundef %8) #0 {
  %10 = alloca ptr, align 8
  %11 = alloca ptr, align 8
  %12 = alloca i32, align 4
  %13 = alloca i32, align 4
  %14 = alloca i64, align 8
  %15 = alloca i64, align 8
  %16 = alloca i64, align 8
  %17 = alloca i32, align 4
  %18 = alloca i64, align 8
  %19 = alloca i64, align 8
  %20 = alloca i64, align 8
  %21 = alloca i64, align 8
  %22 = alloca i64, align 8
  %23 = alloca i64, align 8
  %24 = alloca i64, align 8
  %25 = alloca i64, align 8
  %26 = alloca i64, align 8
  %27 = alloca %struct.ldmParams_t, align 8
  %28 = alloca i64, align 8
  %29 = alloca %struct.ldmParams_t, align 8
  %30 = alloca i64, align 8
  %31 = alloca i64, align 8
  %32 = alloca i64, align 8
  %33 = alloca i64, align 8
  %34 = alloca i64, align 8
  %35 = alloca i64, align 8
  store ptr %0, ptr %10, align 8
  store ptr %1, ptr %11, align 8
  store i32 %2, ptr %12, align 4
  store i32 %3, ptr %13, align 4
  store i64 %4, ptr %14, align 8
  store i64 %5, ptr %15, align 8
  store i64 %6, ptr %16, align 8
  store i32 %7, ptr %17, align 4
  store i64 %8, ptr %18, align 8
  %36 = load ptr, ptr %10, align 8
  %37 = getelementptr inbounds %struct.ZSTD_compressionParameters, ptr %36, i32 0, i32 0
  %38 = load i32, ptr %37, align 4
  %39 = zext i32 %38 to i64
  %40 = shl i64 1, %39
  %41 = load i64, ptr %16, align 8
  %42 = icmp ult i64 %40, %41
  br i1 %42, label %43, label %49

43:                                               ; preds = %9
  %44 = load ptr, ptr %10, align 8
  %45 = getelementptr inbounds %struct.ZSTD_compressionParameters, ptr %44, i32 0, i32 0
  %46 = load i32, ptr %45, align 4
  %47 = zext i32 %46 to i64
  %48 = shl i64 1, %47
  br label %51

49:                                               ; preds = %9
  %50 = load i64, ptr %16, align 8
  br label %51

51:                                               ; preds = %49, %43
  %52 = phi i64 [ %48, %43 ], [ %50, %49 ]
  %53 = icmp ugt i64 1, %52
  br i1 %53, label %54, label %55

54:                                               ; preds = %51
  br label %73

55:                                               ; preds = %51
  %56 = load ptr, ptr %10, align 8
  %57 = getelementptr inbounds %struct.ZSTD_compressionParameters, ptr %56, i32 0, i32 0
  %58 = load i32, ptr %57, align 4
  %59 = zext i32 %58 to i64
  %60 = shl i64 1, %59
  %61 = load i64, ptr %16, align 8
  %62 = icmp ult i64 %60, %61
  br i1 %62, label %63, label %69

63:                                               ; preds = %55
  %64 = load ptr, ptr %10, align 8
  %65 = getelementptr inbounds %struct.ZSTD_compressionParameters, ptr %64, i32 0, i32 0
  %66 = load i32, ptr %65, align 4
  %67 = zext i32 %66 to i64
  %68 = shl i64 1, %67
  br label %71

69:                                               ; preds = %55
  %70 = load i64, ptr %16, align 8
  br label %71

71:                                               ; preds = %69, %63
  %72 = phi i64 [ %68, %63 ], [ %70, %69 ]
  br label %73

73:                                               ; preds = %71, %54
  %74 = phi i64 [ 1, %54 ], [ %72, %71 ]
  store i64 %74, ptr %19, align 8
  %75 = load i64, ptr %18, align 8
  %76 = call i64 @ZSTD_resolveMaxBlockSize(i64 noundef %75)
  %77 = load i64, ptr %19, align 8
  %78 = icmp ult i64 %76, %77
  br i1 %78, label %79, label %82

79:                                               ; preds = %73
  %80 = load i64, ptr %18, align 8
  %81 = call i64 @ZSTD_resolveMaxBlockSize(i64 noundef %80)
  br label %84

82:                                               ; preds = %73
  %83 = load i64, ptr %19, align 8
  br label %84

84:                                               ; preds = %82, %79
  %85 = phi i64 [ %81, %79 ], [ %83, %82 ]
  store i64 %85, ptr %20, align 8
  %86 = load i64, ptr %20, align 8
  %87 = load ptr, ptr %10, align 8
  %88 = getelementptr inbounds %struct.ZSTD_compressionParameters, ptr %87, i32 0, i32 4
  %89 = load i32, ptr %88, align 4
  %90 = load i32, ptr %17, align 4
  %91 = call i64 @ZSTD_maxNbSeq(i64 noundef %86, i32 noundef %89, i32 noundef %90)
  store i64 %91, ptr %21, align 8
  %92 = load i64, ptr %20, align 8
  %93 = add i64 32, %92
  %94 = call i64 @ZSTD_cwksp_alloc_size(i64 noundef %93)
  %95 = load i64, ptr %21, align 8
  %96 = mul i64 %95, 8
  %97 = call i64 @ZSTD_cwksp_aligned_alloc_size(i64 noundef %96)
  %98 = add i64 %94, %97
  %99 = load i64, ptr %21, align 8
  %100 = mul i64 %99, 1
  %101 = call i64 @ZSTD_cwksp_alloc_size(i64 noundef %100)
  %102 = mul i64 3, %101
  %103 = add i64 %98, %102
  store i64 %103, ptr %22, align 8
  %104 = call i64 @ZSTD_cwksp_alloc_size(i64 noundef 8920)
  store i64 %104, ptr %23, align 8
  %105 = call i64 @ZSTD_cwksp_alloc_size(i64 noundef 5632)
  %106 = mul i64 2, %105
  store i64 %106, ptr %24, align 8
  %107 = load ptr, ptr %10, align 8
  %108 = load i32, ptr %13, align 4
  %109 = call i64 @ZSTD_sizeof_matchState(ptr noundef %107, i32 noundef %108, i32 noundef 0, i32 noundef 1)
  store i64 %109, ptr %25, align 8
  %110 = load ptr, ptr %11, align 8
  call void @llvm.memcpy.p0.p0.i64(ptr align 8 %27, ptr align 4 %110, i64 24, i1 false)
  %111 = call i64 @ZSTD_ldm_getTableSize(ptr noundef byval(%struct.ldmParams_t) align 8 %27)
  store i64 %111, ptr %26, align 8
  %112 = load ptr, ptr %11, align 8
  %113 = load i64, ptr %20, align 8
  call void @llvm.memcpy.p0.p0.i64(ptr align 8 %29, ptr align 4 %112, i64 24, i1 false)
  %114 = call i64 @ZSTD_ldm_getMaxNbSeq(ptr noundef byval(%struct.ldmParams_t) align 8 %29, i64 noundef %113)
  store i64 %114, ptr %28, align 8
  %115 = load ptr, ptr %11, align 8
  %116 = getelementptr inbounds %struct.ldmParams_t, ptr %115, i32 0, i32 0
  %117 = load i32, ptr %116, align 4
  %118 = icmp eq i32 %117, 1
  br i1 %118, label %119, label %123

119:                                              ; preds = %84
  %120 = load i64, ptr %28, align 8
  %121 = mul i64 %120, 12
  %122 = call i64 @ZSTD_cwksp_aligned_alloc_size(i64 noundef %121)
  br label %124

123:                                              ; preds = %84
  br label %124

124:                                              ; preds = %123, %119
  %125 = phi i64 [ %122, %119 ], [ 0, %123 ]
  store i64 %125, ptr %30, align 8
  %126 = load i64, ptr %14, align 8
  %127 = call i64 @ZSTD_cwksp_alloc_size(i64 noundef %126)
  %128 = load i64, ptr %15, align 8
  %129 = call i64 @ZSTD_cwksp_alloc_size(i64 noundef %128)
  %130 = add i64 %127, %129
  store i64 %130, ptr %31, align 8
  %131 = load i32, ptr %12, align 4
  %132 = icmp ne i32 %131, 0
  br i1 %132, label %133, label %135

133:                                              ; preds = %124
  %134 = call i64 @ZSTD_cwksp_alloc_size(i64 noundef 5240)
  br label %136

135:                                              ; preds = %124
  br label %136

136:                                              ; preds = %135, %133
  %137 = phi i64 [ %134, %133 ], [ 0, %135 ]
  store i64 %137, ptr %32, align 8
  %138 = load i64, ptr %20, align 8
  %139 = call i64 @ZSTD_sequenceBound(i64 noundef %138)
  store i64 %139, ptr %33, align 8
  %140 = load i32, ptr %17, align 4
  %141 = icmp ne i32 %140, 0
  br i1 %141, label %142, label %146

142:                                              ; preds = %136
  %143 = load i64, ptr %33, align 8
  %144 = mul i64 %143, 16
  %145 = call i64 @ZSTD_cwksp_aligned_alloc_size(i64 noundef %144)
  br label %147

146:                                              ; preds = %136
  br label %147

147:                                              ; preds = %146, %142
  %148 = phi i64 [ %145, %142 ], [ 0, %146 ]
  store i64 %148, ptr %34, align 8
  %149 = load i64, ptr %32, align 8
  %150 = load i64, ptr %23, align 8
  %151 = add i64 %149, %150
  %152 = load i64, ptr %24, align 8
  %153 = add i64 %151, %152
  %154 = load i64, ptr %26, align 8
  %155 = add i64 %153, %154
  %156 = load i64, ptr %30, align 8
  %157 = add i64 %155, %156
  %158 = load i64, ptr %25, align 8
  %159 = add i64 %157, %158
  %160 = load i64, ptr %22, align 8
  %161 = add i64 %159, %160
  %162 = load i64, ptr %31, align 8
  %163 = add i64 %161, %162
  %164 = load i64, ptr %34, align 8
  %165 = add i64 %163, %164
  store i64 %165, ptr %35, align 8
  %166 = load i64, ptr %35, align 8
  ret i64 %166
}