; Function Attrs: nounwind uwtable
define internal fastcc i64 @ZSTD_estimateCCtxSize_usingCCtxParams_internal(ptr noundef readonly captures(none) %0, ptr noundef readonly captures(none) %1, i32 noundef range(i32 0, 2) %2, i32 noundef %3, i64 noundef %4, i64 noundef range(i64 2, 1) %5, i64 noundef %6, i32 noundef %7, i64 noundef %8) unnamed_addr #1 {
  %10 = alloca %struct.ldmParams_t, align 8
  %11 = alloca %struct.ldmParams_t, align 8
  %12 = load i32, ptr %0, align 4
  %13 = getelementptr inbounds nuw i8, ptr %0, i64 16
  %14 = load i32, ptr %13, align 4
  %15 = getelementptr inbounds nuw i8, ptr %0, i64 24
  %16 = load i32, ptr %15, align 4
  %.not4.i.i = icmp eq i32 %16, 1
  br i1 %.not4.i.i, label %ZSTD_allocateChainTable.exit.thread.i, label %ZSTD_allocateChainTable.exit.i

ZSTD_allocateChainTable.exit.i:                   ; preds = %9
  %17 = add i32 %16, -3
  %18 = icmp ult i32 %17, 3
  %19 = icmp eq i32 %3, 1
  %.not8.i.not.i = and i1 %19, %18
  br i1 %.not8.i.not.i, label %ZSTD_allocateChainTable.exit.thread.i, label %ZSTD_allocateChainTable.exit.thread29.i

ZSTD_allocateChainTable.exit.thread29.i:          ; preds = %ZSTD_allocateChainTable.exit.i
  %20 = getelementptr inbounds nuw i8, ptr %0, i64 4
  %21 = load i32, ptr %20, align 4
  %22 = zext nneg i32 %21 to i64
  %23 = shl i64 4, %22
  br label %ZSTD_allocateChainTable.exit.thread.i

ZSTD_allocateChainTable.exit.thread.i:            ; preds = %ZSTD_allocateChainTable.exit.thread29.i, %ZSTD_allocateChainTable.exit.i, %9
  %24 = phi i64 [ %23, %ZSTD_allocateChainTable.exit.thread29.i ], [ 0, %ZSTD_allocateChainTable.exit.i ], [ 0, %9 ]
  %.fr38.i = freeze i32 %12
  %25 = icmp eq i64 %8, 0
  %..i = select i1 %25, i64 131072, i64 %8
  %26 = icmp eq i64 %6, 0
  %27 = zext nneg i32 %.fr38.i to i64
  %28 = shl nuw i64 1, %27
  %. = tail call i64 @llvm.umin.i64(i64 %28, i64 %6)
  %spec.select = select i1 %26, i64 1, i64 %.
  %29 = tail call i64 @llvm.umin.i64(i64 %..i, i64 %spec.select)
  %30 = icmp eq i32 %14, 3
  %31 = icmp ne i32 %7, 0
  %32 = or i1 %31, %30
  %33 = select i1 %32, i64 3, i64 4
  %34 = udiv i64 %29, %33
  %35 = shl i64 %34, 3
  %36 = add i64 %35, 63
  %37 = and i64 %36, -64
  %38 = getelementptr inbounds nuw i8, ptr %0, i64 8
  %39 = load i32, ptr %38, align 4
  %spec.select27.i = tail call i32 @llvm.umin.i32(i32 %.fr38.i, i32 17)
  %.fr.i = select i1 %30, i32 %spec.select27.i, i32 0
  %40 = zext nneg i32 %39 to i64
  %41 = shl nuw i64 1, %40
  %42 = add i32 %16, -6
  %43 = icmp ult i32 %42, -3
  %44 = icmp ne i32 %3, 1
  %.not37.i = or i1 %44, %43
  %45 = add nuw i64 %41, 63
  %46 = and i64 %45, -64
  %47 = select i1 %.not37.i, i64 0, i64 %46
  %48 = icmp ugt i32 %16, 6
  %49 = shl i64 4, %40
  %.not25.i = icmp eq i32 %.fr.i, 0
  %50 = zext nneg i32 %.fr.i to i64
  %51 = shl nuw nsw i64 4, %50
  %52 = select i1 %.not25.i, i64 0, i64 %51
  %53 = select i1 %48, i64 149312, i64 128
  call void @llvm.memcpy.p0.p0.i64(ptr noundef nonnull align 8 dereferenceable(24) %10, ptr noundef nonnull align 4 dereferenceable(24) %1, i64 24, i1 false)
  %54 = tail call i64 @ZSTD_ldm_getTableSize(ptr noundef nonnull byval(%struct.ldmParams_t) align 8 %10) #27
  call void @llvm.memcpy.p0.p0.i64(ptr noundef nonnull align 8 dereferenceable(24) %11, ptr noundef nonnull align 4 dereferenceable(24) %1, i64 24, i1 false)
  %55 = tail call i64 @ZSTD_ldm_getMaxNbSeq(ptr noundef nonnull byval(%struct.ldmParams_t) align 8 %11, i64 noundef %29) #27
  %56 = load i32, ptr %1, align 4
  %57 = icmp eq i32 %56, 1
  %58 = mul i64 %55, 12
  %59 = add i64 %58, 63
  %60 = and i64 %59, -64
  %61 = select i1 %57, i64 %60, i64 0
  %.not = icmp eq i32 %2, 0
  %62 = udiv i64 %29, 3
  %.not43 = icmp eq i32 %7, 0
  %63 = shl i64 %62, 4
  %64 = add i64 %63, 79
  %65 = and i64 %64, -64
  %66 = select i1 %.not43, i64 0, i64 %65
  %67 = mul nuw nsw i64 %34, 3
  %68 = select i1 %.not, i64 20184, i64 25424
  %69 = add i64 %4, 32
  %70 = add i64 %69, %68
  %71 = add i64 %70, %5
  %72 = add i64 %71, %53
  %73 = add i64 %72, %29
  %74 = add i64 %73, %52
  %75 = add i64 %74, %66
  %76 = add i64 %75, %24
  %77 = add i64 %76, %67
  %78 = add i64 %77, %37
  %79 = add i64 %78, %49
  %80 = add i64 %79, %54
  %81 = add i64 %80, %47
  %82 = add i64 %81, %61
  ret i64 %82
}